target datalayout = "e-m:e-p270:32:32-p271:32:32-p272:64:64-i64:64-i128:128-f80:128-n8:16:32:64-S128"
target triple = "x86_64-pc-linux-gnu"

%struct.expert_field = type { i32, i32 }
%struct._packet_info = type { ptr, ptr, i32, i32, %struct.nstime_t, %struct.nstime_t, %struct.nstime_t, i8, ptr, ptr, ptr, ptr, %struct._address, %struct._address, %struct._address, %struct._address, %struct._address, %struct._address, i32, ptr, i8, [3 x i8], %struct.anon, i32, i32, i32, i32, ptr, i8, ptr, ptr, i16, i16, i32, i32, i16, i32, i32, ptr, ptr, ptr, i8, i8, i16, i16, i16, i32, i16, i16, ptr, ptr, ptr, ptr, ptr, i32, i32 }
%struct.nstime_t = type { i64, i32 }
%struct._address = type { i32, i32, ptr, ptr }
%struct.anon = type { i8, [3 x i8] }

@hf_bencode_str_length = internal global i32 0, align 4
@hf_bencode_str = internal global i32 0, align 4
@hf_bencode_truncated_data = internal global i32 0, align 4
@ei_bencode_str = internal global %struct.expert_field zeroinitializer, align 4
@ei_bencode_str_length = internal global %struct.expert_field zeroinitializer, align 4
@.str.30 = private unnamed_addr constant [9 x i8] c" Key: %s\00", align 1
@.str.31 = private unnamed_addr constant [12 x i8] c"  Value: %s\00", align 1

; Function Attrs: null_pointer_is_valid sspstrong uwtable
define internal i32 @dissect_bencoding_str(ptr noundef %0, ptr noundef %1, i32 noundef %2, i32 noundef %3, ptr noundef %4, ptr noundef %5, i32 noundef %6) #0 {
  %8 = alloca i32, align 4
  %9 = alloca ptr, align 8
  %10 = alloca ptr, align 8
  %11 = alloca i32, align 4
  %12 = alloca i32, align 4
  %13 = alloca ptr, align 8
  %14 = alloca ptr, align 8
  %15 = alloca i32, align 4
  %16 = alloca i8, align 1
  %17 = alloca i32, align 4
  %18 = alloca i32, align 4
  %19 = alloca i32, align 4
  %20 = alloca i32, align 4
  %21 = alloca i32, align 4
  store ptr %0, ptr %9, align 8
  store ptr %1, ptr %10, align 8
  store i32 %2, ptr %11, align 4
  store i32 %3, ptr %12, align 4
  store ptr %4, ptr %13, align 8
  store ptr %5, ptr %14, align 8
  store i32 %6, ptr %15, align 4
  call void @llvm.lifetime.start.p0(i64 1, ptr %16) #3
  call void @llvm.lifetime.start.p0(i64 4, ptr %17) #3
  store i32 0, ptr %17, align 4
  call void @llvm.lifetime.start.p0(i64 4, ptr %18) #3
  call void @llvm.lifetime.start.p0(i64 4, ptr %19) #3
  call void @llvm.lifetime.start.p0(i64 4, ptr %20) #3
  store i32 0, ptr %20, align 4
  %22 = load i32, ptr %12, align 4
  %23 = icmp slt i32 %22, 2
  br i1 %23, label %24, label %31

24:                                               ; preds = %7
  %25 = load ptr, ptr %13, align 8
  %26 = load ptr, ptr %10, align 8
  %27 = load ptr, ptr %9, align 8
  %28 = load i32, ptr %11, align 4
  %29 = load i32, ptr %12, align 4
  %30 = call ptr @proto_tree_add_expert(ptr noundef %25, ptr noundef %26, ptr noundef @ei_bencode_str, ptr noundef %27, i32 noundef %28, i32 noundef %29)
  store i32 -1, ptr %8, align 4
  store i32 1, ptr %21, align 4
  br label %162

31:                                               ; preds = %7
  store i32 0, ptr %19, align 4
  br label %32

32:                                               ; preds = %145, %31
  %33 = load i32, ptr %12, align 4
  %34 = icmp sge i32 %33, 1
  br i1 %34, label %35, label %155

35:                                               ; preds = %32
  %36 = load ptr, ptr %9, align 8
  %37 = load i32, ptr %11, align 4
  %38 = load i32, ptr %19, align 4
  %39 = add i32 %37, %38
  %40 = call zeroext i8 @tvb_get_uint8(ptr noundef %36, i32 noundef %39)
  store i8 %40, ptr %16, align 1
  %41 = load i32, ptr %12, align 4
  %42 = add i32 %41, -1
  store i32 %42, ptr %12, align 4
  %43 = load i32, ptr %19, align 4
  %44 = add i32 %43, 1
  store i32 %44, ptr %19, align 4
  %45 = load i8, ptr %16, align 1
  %46 = zext i8 %45 to i32
  %47 = icmp eq i32 %46, 58
  br i1 %47, label %48, label %116

48:                                               ; preds = %35
  %49 = load i32, ptr %19, align 4
  %50 = icmp sgt i32 %49, 1
  br i1 %50, label %51, label %116

51:                                               ; preds = %48
  %52 = load i32, ptr %17, align 4
  %53 = load i32, ptr %12, align 4
  %54 = icmp sgt i32 %52, %53
  br i1 %54, label %58, label %55

55:                                               ; preds = %51
  %56 = load i32, ptr %17, align 4
  %57 = icmp slt i32 %56, 0
  br i1 %57, label %58, label %65

58:                                               ; preds = %55, %51
  %59 = load ptr, ptr %13, align 8
  %60 = load ptr, ptr %10, align 8
  %61 = load ptr, ptr %9, align 8
  %62 = load i32, ptr %11, align 4
  %63 = load i32, ptr %12, align 4
  %64 = call ptr @proto_tree_add_expert(ptr noundef %59, ptr noundef %60, ptr noundef @ei_bencode_str_length, ptr noundef %61, i32 noundef %62, i32 noundef %63)
  store i32 -1, ptr %8, align 4
  store i32 1, ptr %21, align 4
  br label %162

65:                                               ; preds = %55
  %66 = load ptr, ptr %13, align 8
  %67 = icmp ne ptr %66, null
  br i1 %67, label %68, label %112

68:                                               ; preds = %65
  %69 = load ptr, ptr %13, align 8
  %70 = load i32, ptr @hf_bencode_str_length, align 4
  %71 = load ptr, ptr %9, align 8
  %72 = load i32, ptr %11, align 4
  %73 = load i32, ptr %19, align 4
  %74 = load i32, ptr %17, align 4
  %75 = call ptr @proto_tree_add_uint(ptr noundef %69, i32 noundef %70, ptr noundef %71, i32 noundef %72, i32 noundef %73, i32 noundef %74)
  %76 = load ptr, ptr %13, align 8
  %77 = load i32, ptr @hf_bencode_str, align 4
  %78 = load ptr, ptr %9, align 8
  %79 = load i32, ptr %11, align 4
  %80 = load i32, ptr %19, align 4
  %81 = add i32 %79, %80
  %82 = load i32, ptr %17, align 4
  %83 = call ptr @proto_tree_add_item(ptr noundef %76, i32 noundef %77, ptr noundef %78, i32 noundef %81, i32 noundef %82, i32 noundef 0)
  %84 = load i32, ptr %15, align 4
  %85 = icmp eq i32 %84, 1
  br i1 %85, label %86, label %97

86:                                               ; preds = %68
  %87 = load ptr, ptr %14, align 8
  %88 = load ptr, ptr %10, align 8
  %89 = getelementptr inbounds nuw %struct._packet_info, ptr %88, i32 0, i32 51
  %90 = load ptr, ptr %89, align 8
  %91 = load ptr, ptr %9, align 8
  %92 = load i32, ptr %11, align 4
  %93 = load i32, ptr %19, align 4
  %94 = add i32 %92, %93
  %95 = load i32, ptr %17, align 4
  %96 = call ptr @tvb_format_text(ptr noundef %90, ptr noundef %91, i32 noundef %94, i32 noundef %95)
  call void (ptr, ptr, ...) @proto_item_append_text(ptr noundef %87, ptr noundef @.str.30, ptr noundef %96)
  br label %97

97:                                               ; preds = %86, %68
  %98 = load i32, ptr %15, align 4
  %99 = icmp eq i32 %98, 2
  br i1 %99, label %100, label %111

100:                                              ; preds = %97
  %101 = load ptr, ptr %14, align 8
  %102 = load ptr, ptr %10, align 8
  %103 = getelementptr inbounds nuw %struct._packet_info, ptr %102, i32 0, i32 51
  %104 = load ptr, ptr %103, align 8
  %105 = load ptr, ptr %9, align 8
  %106 = load i32, ptr %11, align 4
  %107 = load i32, ptr %19, align 4
  %108 = add i32 %106, %107
  %109 = load i32, ptr %17, align 4
  %110 = call ptr @tvb_format_text(ptr noundef %104, ptr noundef %105, i32 noundef %108, i32 noundef %109)
  call void (ptr, ptr, ...) @proto_item_append_text(ptr noundef %101, ptr noundef @.str.31, ptr noundef %110)
  br label %111

111:                                              ; preds = %100, %97
  br label %112

112:                                              ; preds = %111, %65
  %113 = load i32, ptr %19, align 4
  %114 = load i32, ptr %17, align 4
  %115 = add i32 %113, %114
  store i32 %115, ptr %8, align 4
  store i32 1, ptr %21, align 4
  br label %162

116:                                              ; preds = %48, %35
  %117 = load i32, ptr %20, align 4
  %118 = icmp ne i32 %117, 0
  br i1 %118, label %148, label %119

119:                                              ; preds = %116
  %120 = load i8, ptr %16, align 1
  %121 = zext i8 %120 to i32
  %122 = icmp sge i32 %121, 48
  br i1 %122, label %123, label %148

123:                                              ; preds = %119
  %124 = load i8, ptr %16, align 1
  %125 = zext i8 %124 to i32
  %126 = icmp sle i32 %125, 57
  br i1 %126, label %127, label %148

127:                                              ; preds = %123
  %128 = load i8, ptr %16, align 1
  %129 = zext i8 %128 to i32
  %130 = icmp eq i32 %129, 48
  br i1 %130, label %131, label %135

131:                                              ; preds = %127
  %132 = load i32, ptr %19, align 4
  %133 = icmp eq i32 %132, 1
  br i1 %133, label %134, label %135

134:                                              ; preds = %131
  store i32 1, ptr %20, align 4
  br label %135

135:                                              ; preds = %134, %131, %127
  %136 = load i32, ptr %17, align 4
  %137 = mul i32 %136, 10
  %138 = load i8, ptr %16, align 1
  %139 = zext i8 %138 to i32
  %140 = sub i32 %139, 48
  %141 = add i32 %137, %140
  store i32 %141, ptr %18, align 4
  %142 = load i32, ptr %18, align 4
  %143 = load i32, ptr %17, align 4
  %144 = icmp sge i32 %142, %143
  br i1 %144, label %145, label %147

145:                                              ; preds = %135
  %146 = load i32, ptr %18, align 4
  store i32 %146, ptr %17, align 4
  br label %32, !llvm.loop !9

147:                                              ; preds = %135
  br label %148

148:                                              ; preds = %147, %123, %119, %116
  %149 = load ptr, ptr %13, align 8
  %150 = load ptr, ptr %10, align 8
  %151 = load ptr, ptr %9, align 8
  %152 = load i32, ptr %11, align 4
  %153 = load i32, ptr %12, align 4
  %154 = call ptr @proto_tree_add_expert(ptr noundef %149, ptr noundef %150, ptr noundef @ei_bencode_str, ptr noundef %151, i32 noundef %152, i32 noundef %153)
  store i32 -1, ptr %8, align 4
  store i32 1, ptr %21, align 4
  br label %162

155:                                              ; preds = %32
  %156 = load ptr, ptr %13, align 8
  %157 = load i32, ptr @hf_bencode_truncated_data, align 4
  %158 = load ptr, ptr %9, align 8
  %159 = load i32, ptr %11, align 4
  %160 = load i32, ptr %12, align 4
  %161 = call ptr @proto_tree_add_item(ptr noundef %156, i32 noundef %157, ptr noundef %158, i32 noundef %159, i32 noundef %160, i32 noundef 0)
  store i32 -1, ptr %8, align 4
  store i32 1, ptr %21, align 4
  br label %162

162:                                              ; preds = %155, %148, %112, %58, %24
  call void @llvm.lifetime.end.p0(i64 4, ptr %20) #3
  call void @llvm.lifetime.end.p0(i64 4, ptr %19) #3
  call void @llvm.lifetime.end.p0(i64 4, ptr %18) #3
  call void @llvm.lifetime.end.p0(i64 4, ptr %17) #3
  call void @llvm.lifetime.end.p0(i64 1, ptr %16) #3
  %163 = load i32, ptr %8, align 4
  ret i32 %163
}