; Function Attrs: null_pointer_is_valid sspstrong uwtable
define internal fastcc range(i32 2, 0) i32 @dissect_bencoding_str(ptr noundef %0, ptr noundef %1, i32 noundef %2, i32 noundef range(i32 1, -2147483648) %3, ptr noundef %4, ptr noundef %5, i32 noundef range(i32 0, 3) %6) unnamed_addr #0 {
  %8 = icmp samesign ult i32 %3, 2
  br i1 %8, label %9, label %.preheader

9:                                                ; preds = %7
  %10 = tail call ptr @proto_tree_add_expert(ptr noundef %4, ptr noundef %1, ptr noundef nonnull @ei_bencode_str, ptr noundef %0, i32 noundef %2, i32 noundef 1)
  br label %49

.preheader:                                       ; preds = %7, %38
  %.082 = phi i32 [ %14, %38 ], [ %3, %7 ]
  %.081 = phi i32 [ %43, %38 ], [ 0, %7 ]
  %.079 = phi i32 [ %15, %38 ], [ 0, %7 ]
  %.0 = phi i1 [ %or.cond11.not, %38 ], [ true, %7 ]
  %exitcond.not = icmp eq i32 %.079, %3
  br i1 %exitcond.not, label %46, label %11

11:                                               ; preds = %.preheader
  %12 = add i32 %.079, %2
  %13 = tail call zeroext i8 @tvb_get_uint8(ptr noundef %0, i32 noundef %12)
  %14 = add nsw i32 %.082, -1
  %15 = add nuw i32 %.079, 1
  %16 = zext i8 %13 to i32
  %17 = icmp eq i8 %13, 58
  %18 = icmp sgt i32 %15, 1
  %or.cond = select i1 %17, i1 %18, i1 false
  br i1 %or.cond, label %19, label %35

19:                                               ; preds = %11
  %or.cond3.not = icmp ult i32 %.081, %.082
  br i1 %or.cond3.not, label %22, label %20

20:                                               ; preds = %19
  %21 = tail call ptr @proto_tree_add_expert(ptr noundef %4, ptr noundef %1, ptr noundef nonnull @ei_bencode_str_length, ptr noundef %0, i32 noundef %2, i32 noundef %14)
  br label %49

22:                                               ; preds = %19
  %.not89 = icmp eq ptr %4, null
  br i1 %.not89, label %33, label %23

23:                                               ; preds = %22
  %24 = load i32, ptr @hf_bencode_str_length, align 4
  %25 = tail call ptr @proto_tree_add_uint(ptr noundef nonnull %4, i32 noundef %24, ptr noundef %0, i32 noundef %2, i32 noundef %15, i32 noundef %.081)
  %26 = load i32, ptr @hf_bencode_str, align 4
  %27 = add i32 %15, %2
  %28 = tail call ptr @proto_tree_add_item(ptr noundef nonnull %4, i32 noundef %26, ptr noundef %0, i32 noundef %27, i32 noundef %.081, i32 noundef 0)
  switch i32 %6, label %33 [
    i32 1, label %.sink.split
    i32 2, label %29
  ]

29:                                               ; preds = %23
  br label %.sink.split

.sink.split:                                      ; preds = %23, %29
  %.str.30.sink = phi ptr [ @.str.31, %29 ], [ @.str.30, %23 ]
  %30 = getelementptr inbounds nuw i8, ptr %1, i64 408
  %31 = load ptr, ptr %30, align 8
  %32 = tail call ptr @tvb_format_text(ptr noundef %31, ptr noundef %0, i32 noundef %27, i32 noundef %.081)
  tail call void (ptr, ptr, ...) @proto_item_append_text(ptr noundef %5, ptr noundef nonnull %.str.30.sink, ptr noundef %32)
  br label %33

33:                                               ; preds = %.sink.split, %23, %22
  %34 = add nuw i32 %15, %.081
  br label %49

35:                                               ; preds = %11
  %36 = add i8 %13, -48
  %37 = icmp ult i8 %36, 10
  %or.cond9 = and i1 %.0, %37
  br i1 %or.cond9, label %38, label %44

38:                                               ; preds = %35
  %39 = icmp ne i8 %13, 48
  %40 = icmp ne i32 %.079, 0
  %or.cond11.not = or i1 %39, %40
  %41 = mul i32 %.081, 10
  %42 = add i32 %41, -48
  %43 = add i32 %42, %16
  %.not = icmp slt i32 %43, %.081
  br i1 %.not, label %44, label %.preheader, !llvm.loop !10

44:                                               ; preds = %38, %35
  %45 = tail call ptr @proto_tree_add_expert(ptr noundef %4, ptr noundef %1, ptr noundef nonnull @ei_bencode_str, ptr noundef %0, i32 noundef %2, i32 noundef %14)
  br label %49

46:                                               ; preds = %.preheader
  %47 = load i32, ptr @hf_bencode_truncated_data, align 4
  %48 = tail call ptr @proto_tree_add_item(ptr noundef %4, i32 noundef %47, ptr noundef %0, i32 noundef %2, i32 noundef 0, i32 noundef 0)
  br label %49

49:                                               ; preds = %46, %44, %33, %20, %9
  %.080 = phi i32 [ -1, %9 ], [ -1, %20 ], [ %34, %33 ], [ -1, %44 ], [ -1, %46 ]
  ret i32 %.080
}